target datalayout = "e-m:e-p270:32:32-p271:32:32-p272:64:64-i64:64-i128:128-f80:128-n8:16:32:64-S128"
target triple = "x86_64-pc-linux-gnu"

%struct.tls_buffer_st = type { ptr, i64, i64, i64, i64, i32, i32 }
%struct.tls_rl_record_st = type { i32, i32, i64, i64, i64, ptr, ptr, ptr, i16, [8 x i8] }
%struct.ossl_record_layer_st = type { ptr, ptr, i32, i32, i32, i32, i32, ptr, i16, ptr, ptr, ptr, i64, i32, [33 x %struct.tls_buffer_st], i64, i64, %struct.tls_buffer_st, [32 x %struct.tls_rl_record_st], i64, i64, i64, i32, ptr, i64, [8 x i8], i32, i32, i64, i32, ptr, ptr, i64, ptr, ptr, i32, i32, i32, i64, i64, i64, [64 x i8], i32, i32, i32, ptr, ptr, i32, i32, i64, ptr, ptr, %struct.dtls_bitmap_st, %struct.dtls_bitmap_st, i32, ptr, ptr, ptr, ptr, ptr, i64, ptr }
%struct.dtls_bitmap_st = type { i64, [8 x i8] }

; Function Attrs: nounwind uwtable
define i64 @tls_get_max_records_default(ptr noundef %0, i8 noundef zeroext %1, i64 noundef %2, i64 noundef %3, ptr noundef %4) #0 {
  %6 = alloca i64, align 8
  %7 = alloca ptr, align 8
  %8 = alloca i8, align 1
  %9 = alloca i64, align 8
  %10 = alloca i64, align 8
  %11 = alloca ptr, align 8
  %12 = alloca i64, align 8
  %13 = alloca i32, align 4
  store ptr %0, ptr %7, align 8, !tbaa !16
  store i8 %1, ptr %8, align 1, !tbaa !91
  store i64 %2, ptr %9, align 8, !tbaa !38
  store i64 %3, ptr %10, align 8, !tbaa !38
  store ptr %4, ptr %11, align 8, !tbaa !58
  %14 = load ptr, ptr %7, align 8, !tbaa !16
  %15 = getelementptr inbounds nuw %struct.ossl_record_layer_st, ptr %14, i32 0, i32 60
  %16 = load i64, ptr %15, align 8, !tbaa !56
  %17 = icmp ugt i64 %16, 0
  br i1 %17, label %18, label %81

18:                                               ; preds = %5
  %19 = load ptr, ptr %7, align 8, !tbaa !16
  %20 = getelementptr inbounds nuw %struct.ossl_record_layer_st, ptr %19, i32 0, i32 30
  %21 = load ptr, ptr %20, align 8, !tbaa !88
  %22 = icmp ne ptr %21, null
  br i1 %22, label %23, label %81

23:                                               ; preds = %18
  %24 = load ptr, ptr %7, align 8, !tbaa !16
  %25 = getelementptr inbounds nuw %struct.ossl_record_layer_st, ptr %24, i32 0, i32 30
  %26 = load ptr, ptr %25, align 8, !tbaa !88
  %27 = call ptr @EVP_CIPHER_CTX_get0_cipher(ptr noundef %26)
  %28 = call i64 @EVP_CIPHER_get_flags(ptr noundef %27)
  %29 = and i64 %28, 8388608
  %30 = icmp ne i64 %29, 0
  br i1 %30, label %31, label %81

31:                                               ; preds = %23
  %32 = load ptr, ptr %7, align 8, !tbaa !16
  %33 = getelementptr inbounds nuw %struct.ossl_record_layer_st, ptr %32, i32 0, i32 3
  %34 = load i32, ptr %33, align 4, !tbaa !44
  %35 = icmp eq i32 %34, 770
  br i1 %35, label %56, label %36

36:                                               ; preds = %31
  %37 = load ptr, ptr %7, align 8, !tbaa !16
  %38 = getelementptr inbounds nuw %struct.ossl_record_layer_st, ptr %37, i32 0, i32 3
  %39 = load i32, ptr %38, align 4, !tbaa !44
  %40 = icmp eq i32 %39, 771
  br i1 %40, label %56, label %41

41:                                               ; preds = %36
  %42 = load ptr, ptr %7, align 8, !tbaa !16
  %43 = getelementptr inbounds nuw %struct.ossl_record_layer_st, ptr %42, i32 0, i32 3
  %44 = load i32, ptr %43, align 4, !tbaa !44
  %45 = icmp eq i32 %44, 256
  br i1 %45, label %56, label %46

46:                                               ; preds = %41
  %47 = load ptr, ptr %7, align 8, !tbaa !16
  %48 = getelementptr inbounds nuw %struct.ossl_record_layer_st, ptr %47, i32 0, i32 3
  %49 = load i32, ptr %48, align 4, !tbaa !44
  %50 = icmp eq i32 %49, 65279
  br i1 %50, label %56, label %51

51:                                               ; preds = %46
  %52 = load ptr, ptr %7, align 8, !tbaa !16
  %53 = getelementptr inbounds nuw %struct.ossl_record_layer_st, ptr %52, i32 0, i32 3
  %54 = load i32, ptr %53, align 4, !tbaa !44
  %55 = icmp eq i32 %54, 65277
  br i1 %55, label %56, label %81

56:                                               ; preds = %51, %46, %41, %36, %31
  call void @llvm.lifetime.start.p0(i64 8, ptr %12) #10
  %57 = load i64, ptr %9, align 8, !tbaa !38
  %58 = icmp eq i64 %57, 0
  br i1 %58, label %59, label %60

59:                                               ; preds = %56
  store i64 1, ptr %6, align 8
  store i32 1, ptr %13, align 4
  br label %80

60:                                               ; preds = %56
  %61 = load i64, ptr %9, align 8, !tbaa !38
  %62 = sub i64 %61, 1
  %63 = load ptr, ptr %11, align 8, !tbaa !58
  %64 = load i64, ptr %63, align 8, !tbaa !38
  %65 = udiv i64 %62, %64
  %66 = add i64 %65, 1
  store i64 %66, ptr %12, align 8, !tbaa !38
  %67 = load i64, ptr %12, align 8, !tbaa !38
  %68 = load ptr, ptr %7, align 8, !tbaa !16
  %69 = getelementptr inbounds nuw %struct.ossl_record_layer_st, ptr %68, i32 0, i32 60
  %70 = load i64, ptr %69, align 8, !tbaa !56
  %71 = icmp ult i64 %67, %70
  br i1 %71, label %72, label %74

72:                                               ; preds = %60
  %73 = load i64, ptr %12, align 8, !tbaa !38
  br label %78

74:                                               ; preds = %60
  %75 = load ptr, ptr %7, align 8, !tbaa !16
  %76 = getelementptr inbounds nuw %struct.ossl_record_layer_st, ptr %75, i32 0, i32 60
  %77 = load i64, ptr %76, align 8, !tbaa !56
  br label %78

78:                                               ; preds = %74, %72
  %79 = phi i64 [ %73, %72 ], [ %77, %74 ]
  store i64 %79, ptr %6, align 8
  store i32 1, ptr %13, align 4
  br label %80

80:                                               ; preds = %78, %59
  call void @llvm.lifetime.end.p0(i64 8, ptr %12) #10
  br label %82

81:                                               ; preds = %51, %23, %18, %5
  store i64 1, ptr %6, align 8
  br label %82

82:                                               ; preds = %81, %80
  %83 = load i64, ptr %6, align 8
  ret i64 %83
}