; Function Attrs: nounwind uwtable
define i64 @tls_get_max_records_default(ptr noundef readonly captures(none) %0, i8 noundef zeroext %1, i64 noundef %2, i64 noundef %3, ptr noundef readonly captures(none) %4) local_unnamed_addr #0 {
  %6 = getelementptr inbounds nuw i8, ptr %0, i64 4416
  %7 = load i64, ptr %6, align 8, !tbaa !43
  %.not = icmp eq i64 %7, 0
  br i1 %.not, label %26, label %8

8:                                                ; preds = %5
  %9 = getelementptr inbounds nuw i8, ptr %0, i64 4128
  %10 = load ptr, ptr %9, align 8, !tbaa !71
  %.not20 = icmp eq ptr %10, null
  br i1 %.not20, label %26, label %11

11:                                               ; preds = %8
  %12 = tail call ptr @EVP_CIPHER_CTX_get0_cipher(ptr noundef nonnull %10) #13
  %13 = tail call i64 @EVP_CIPHER_get_flags(ptr noundef %12) #13
  %14 = and i64 %13, 8388608
  %.not21 = icmp eq i64 %14, 0
  br i1 %.not21, label %26, label %15

15:                                               ; preds = %11
  %16 = getelementptr inbounds nuw i8, ptr %0, i64 20
  %17 = load i32, ptr %16, align 4, !tbaa !31
  switch i32 %17, label %26 [
    i32 770, label %18
    i32 771, label %18
    i32 256, label %18
    i32 65279, label %18
    i32 65277, label %18
  ]

18:                                               ; preds = %15, %15, %15, %15, %15
  %19 = icmp eq i64 %2, 0
  br i1 %19, label %26, label %20

20:                                               ; preds = %18
  %21 = add i64 %2, -1
  %22 = load i64, ptr %4, align 8, !tbaa !24
  %23 = udiv i64 %21, %22
  %24 = add nuw i64 %23, 1
  %25 = load i64, ptr %6, align 8, !tbaa !43
  %. = tail call i64 @llvm.umin.i64(i64 %24, i64 %25)
  br label %26

26:                                               ; preds = %5, %8, %11, %15, %20, %18
  %.1 = phi i64 [ %., %20 ], [ 1, %18 ], [ 1, %15 ], [ 1, %11 ], [ 1, %8 ], [ 1, %5 ]
  ret i64 %.1
}